; Function Attrs: mustprogress uwtable
define noundef zeroext i1 @_ZNK10open_spiel9blackjack14BlackjackState10IsTerminalEv(ptr nocapture noundef nonnull readonly align 8 dereferenceable(200) %0) unnamed_addr #3 align 2 {
  %2 = getelementptr inbounds nuw i8, ptr %0, i64 128
  %3 = getelementptr inbounds nuw i8, ptr %0, i64 8
  %4 = load ptr, ptr %3, align 8
  %5 = load ptr, ptr %4, align 8
  %6 = getelementptr inbounds i8, ptr %5, i64 56
  %7 = load ptr, ptr %6, align 8
  %8 = tail call noundef i32 %7(ptr noundef nonnull align 8 dereferenceable(280) %4)
  %9 = sext i32 %8 to i64
  %10 = load ptr, ptr %2, align 8
  %11 = getelementptr inbounds i32, ptr %10, i64 %9
  %12 = load i32, ptr %11, align 4
  %13 = icmp ne i32 %12, 0
  ret i1 %13
}